; Function Attrs: mustprogress uwtable
define void @_ZN32pxrInternal_v0_24__pxrReserved__7TfDebug6Helper3MsgEPKcz(ptr noundef %0, ...) local_unnamed_addr #0 align 2 personality ptr @__gxx_personality_v0 {
  %2 = alloca [1 x %struct.__va_list_tag], align 16
  %3 = alloca %"class.std::__cxx11::basic_string", align 8
  call void @llvm.va_start.p0(ptr nonnull %2)
  call void @_ZN32pxrInternal_v0_24__pxrReserved__15TfVStringPrintfB5cxx11EPKcP13__va_list_tag(ptr dead_on_unwind nonnull writable sret(%"class.std::__cxx11::basic_string") align 8 %3, ptr noundef %0, ptr noundef nonnull %2)
  invoke fastcc void @_ZN32pxrInternal_v0_24__pxrReserved__L14_GetOutputFileEv()
          to label %4 unwind label %8

4:                                                ; preds = %1
  %5 = load atomic i64, ptr @_ZZN32pxrInternal_v0_24__pxrReserved__L14_GetOutputFileEvE11_outputFile seq_cst, align 8
  %.0.i.i = inttoptr i64 %5 to ptr
  %6 = call noundef ptr @_ZNKSt7__cxx1112basic_stringIcSt11char_traitsIcESaIcEE5c_strEv(ptr noundef nonnull align 8 dereferenceable(32) %3) #12
  %fputs.i = call i32 @fputs(ptr %6, ptr %.0.i.i)
  %7 = call i32 @fflush(ptr noundef %.0.i.i)
  call void @_ZNSt7__cxx1112basic_stringIcSt11char_traitsIcESaIcEED1Ev(ptr noundef nonnull align 8 dereferenceable(32) %3) #12
  call void @llvm.va_end.p0(ptr nonnull %2)
  ret void

8:                                                ; preds = %1
  %9 = landingpad { ptr, i32 }
          cleanup
  call void @_ZNSt7__cxx1112basic_stringIcSt11char_traitsIcESaIcEED1Ev(ptr noundef nonnull align 8 dereferenceable(32) %3) #12
  resume { ptr, i32 } %9
}